; ModuleID = '10/735.c'
source_filename = "10/735.c"
target datalayout = "e-m:e-p270:32:32-p271:32:32-p272:64:64-i64:64-f80:128-n8:16:32:64-S128"
target triple = "x86_64-pc-linux-gnu"

@.str = private unnamed_addr constant [3 x i8] c"%d\00", align 1

; Function Attrs: noinline nounwind uwtable
define dso_local i32 @main() #0 {
  %1 = alloca i32, align 4
  %2 = alloca i32, align 4
  %3 = alloca i8*, align 8
  %4 = alloca i64, align 8
  %5 = alloca i32, align 4
  %6 = alloca i64, align 8
  %7 = alloca i32, align 4
  %8 = alloca i32, align 4
  %9 = alloca i32, align 4
  %10 = alloca i32, align 4
  %11 = alloca i32, align 4
  store i32 0, i32* %1, align 4
  %12 = call i32 (i8*, ...) @__isoc99_scanf(i8* getelementptr inbounds ([3 x i8], [3 x i8]* @.str, i64 0, i64 0), i32* %2)
  %13 = load i32, i32* %2, align 4
  %14 = zext i32 %13 to i64
  %15 = call i8* @llvm.stacksave()
  store i8* %15, i8** %3, align 8
  %16 = alloca i32, i64 %14, align 16
  store i64 %14, i64* %4, align 8
  store i32 0, i32* %5, align 4
  br label %17

17:                                               ; preds = %26, %0
  %18 = load i32, i32* %5, align 4
  %19 = load i32, i32* %2, align 4
  %20 = icmp slt i32 %18, %19
  br i1 %20, label %21, label %29

21:                                               ; preds = %17
  %22 = load i32, i32* %5, align 4
  %23 = sext i32 %22 to i64
  %24 = getelementptr inbounds i32, i32* %16, i64 %23
  %25 = call i32 (i8*, ...) @__isoc99_scanf(i8* getelementptr inbounds ([3 x i8], [3 x i8]* @.str, i64 0, i64 0), i32* %24)
  br label %26

26:                                               ; preds = %21
  %27 = load i32, i32* %5, align 4
  %28 = add nsw i32 %27, 1
  store i32 %28, i32* %5, align 4
  br label %17

29:                                               ; preds = %17
  %30 = load i32, i32* %2, align 4
  %31 = zext i32 %30 to i64
  %32 = alloca i32, i64 %31, align 16
  store i64 %31, i64* %6, align 8
  store i32 0, i32* %7, align 4
  br label %33

33:                                               ; preds = %41, %29
  %34 = load i32, i32* %7, align 4
  %35 = load i32, i32* %2, align 4
  %36 = icmp slt i32 %34, %35
  br i1 %36, label %37, label %44

37:                                               ; preds = %33
  %38 = load i32, i32* %7, align 4
  %39 = sext i32 %38 to i64
  %40 = getelementptr inbounds i32, i32* %32, i64 %39
  store i32 0, i32* %40, align 4
  br label %41

41:                                               ; preds = %37
  %42 = load i32, i32* %7, align 4
  %43 = add nsw i32 %42, 1
  store i32 %43, i32* %7, align 4
  br label %33

44:                                               ; preds = %33
  %45 = load i32, i32* %2, align 4
  store i32 %45, i32* %8, align 4
  br label %46

46:                                               ; preds = %90, %44
  %47 = load i32, i32* %8, align 4
  %48 = icmp sge i32 %47, 0
  br i1 %48, label %49, label %93

49:                                               ; preds = %46
  %50 = load i32, i32* %8, align 4
  store i32 %50, i32* %9, align 4
  br label %51

51:                                               ; preds = %86, %49
  %52 = load i32, i32* %9, align 4
  %53 = load i32, i32* %2, align 4
  %54 = icmp slt i32 %52, %53
  br i1 %54, label %55, label %89

55:                                               ; preds = %51
  %56 = load i32, i32* %8, align 4
  %57 = sext i32 %56 to i64
  %58 = getelementptr inbounds i32, i32* %16, i64 %57
  %59 = load i32, i32* %58, align 4
  %60 = load i32, i32* %9, align 4
  %61 = sext i32 %60 to i64
  %62 = getelementptr inbounds i32, i32* %16, i64 %61
  %63 = load i32, i32* %62, align 4
  %64 = icmp sge i32 %59, %63
  br i1 %64, label %65, label %85

65:                                               ; preds = %55
  %66 = load i32, i32* %8, align 4
  %67 = sext i32 %66 to i64
  %68 = getelementptr inbounds i32, i32* %32, i64 %67
  %69 = load i32, i32* %68, align 4
  %70 = load i32, i32* %9, align 4
  %71 = sext i32 %70 to i64
  %72 = getelementptr inbounds i32, i32* %32, i64 %71
  %73 = load i32, i32* %72, align 4
  %74 = add nsw i32 %73, 1
  %75 = icmp sle i32 %69, %74
  br i1 %75, label %76, label %85

76:                                               ; preds = %65
  %77 = load i32, i32* %9, align 4
  %78 = sext i32 %77 to i64
  %79 = getelementptr inbounds i32, i32* %32, i64 %78
  %80 = load i32, i32* %79, align 4
  %81 = add nsw i32 %80, 1
  %82 = load i32, i32* %8, align 4
  %83 = sext i32 %82 to i64
  %84 = getelementptr inbounds i32, i32* %32, i64 %83
  store i32 %81, i32* %84, align 4
  br label %85

85:                                               ; preds = %76, %65, %55
  br label %86

86:                                               ; preds = %85
  %87 = load i32, i32* %9, align 4
  %88 = add nsw i32 %87, 1
  store i32 %88, i32* %9, align 4
  br label %51

89:                                               ; preds = %51
  br label %90

90:                                               ; preds = %89
  %91 = load i32, i32* %8, align 4
  %92 = add nsw i32 %91, -1
  store i32 %92, i32* %8, align 4
  br label %46

93:                                               ; preds = %46
  store i32 1, i32* %10, align 4
  store i32 0, i32* %11, align 4
  br label %94

94:                                               ; preds = %111, %93
  %95 = load i32, i32* %11, align 4
  %96 = load i32, i32* %2, align 4
  %97 = icmp slt i32 %95, %96
  br i1 %97, label %98, label %114

98:                                               ; preds = %94
  %99 = load i32, i32* %11, align 4
  %100 = sext i32 %99 to i64
  %101 = getelementptr inbounds i32, i32* %32, i64 %100
  %102 = load i32, i32* %101, align 4
  %103 = load i32, i32* %10, align 4
  %104 = icmp sgt i32 %102, %103
  br i1 %104, label %105, label %110

105:                                              ; preds = %98
  %106 = load i32, i32* %11, align 4
  %107 = sext i32 %106 to i64
  %108 = getelementptr inbounds i32, i32* %32, i64 %107
  %109 = load i32, i32* %108, align 4
  store i32 %109, i32* %10, align 4
  br label %110

110:                                              ; preds = %105, %98
  br label %111

111:                                              ; preds = %110
  %112 = load i32, i32* %11, align 4
  %113 = add nsw i32 %112, 1
  store i32 %113, i32* %11, align 4
  br label %94

114:                                              ; preds = %94
  %115 = load i32, i32* %10, align 4
  %116 = call i32 (i8*, ...) @printf(i8* getelementptr inbounds ([3 x i8], [3 x i8]* @.str, i64 0, i64 0), i32 %115)
  %117 = load i8*, i8** %3, align 8
  call void @llvm.stackrestore(i8* %117)
  %118 = load i32, i32* %1, align 4
  ret i32 %118
}

declare dso_local i32 @__isoc99_scanf(i8*, ...) #1

; Function Attrs: nounwind
declare i8* @llvm.stacksave() #2

declare dso_local i32 @printf(i8*, ...) #1

; Function Attrs: nounwind
declare void @llvm.stackrestore(i8*) #2


!llvm.module.flags = !{!0}
!llvm.ident = !{!1}

!0 = !{i32 1, !"wchar_size", i32 4}
!1 = !{!"clang version 10.0.0-4ubuntu1 "}
